target datalayout = "e-m:e-p270:32:32-p271:32:32-p272:64:64-i64:64-i128:128-f80:128-n8:16:32:64-S128"
target triple = "x86_64-pc-linux-gnu"

%struct.cfl_ctx = type { [1024 x i16], [1024 x i16], [2 x i32], i32, [2 x [32 x i16]], i32, i32, i32, i32, i32, i32 }
%struct.macroblockd = type { i32, i32, i32, i8, [3 x %struct.macroblockd_plane], %struct.TileInfo, ptr, i8, i8, i8, i8, ptr, ptr, ptr, ptr, ptr, i32, i32, i32, i32, i32, [2 x ptr], ptr, [3 x ptr], [3 x [32 x i8]], ptr, [32 x i8], ptr, ptr, [32 x i8], [3 x %struct.WienerInfo], [3 x %struct.SgrprojInfo], i8, i8, [29 x [8 x %struct.candidate_mv]], [29 x [8 x i16]], i8, i8, [8 x i8], ptr, i32, [8 x i32], [8 x i32], i32, i32, ptr, ptr, i8, [4 x i8], [4 x i8], [7 x i8], [32768 x i8], %struct.cfl_ctx, [2 x i16], ptr, [2 x ptr] }
%struct.macroblockd_plane = type { i8, i32, i32, %struct.buf_2d, [2 x %struct.buf_2d], ptr, ptr, [8 x [2 x i16]], ptr, i8, i8, [8 x [19 x ptr]], [8 x [19 x ptr]] }
%struct.buf_2d = type { ptr, ptr, i32, i32, i32 }
%struct.TileInfo = type { i32, i32, i32, i32, i32, i32 }
%struct.WienerInfo = type { [8 x i16], [8 x i16] }
%struct.SgrprojInfo = type { i32, [2 x i32] }
%struct.candidate_mv = type { %union.int_mv, %union.int_mv }
%union.int_mv = type { i32 }
%struct.yv12_buffer_config = type { %union.anon, %union.anon.0, %union.anon.2, %union.anon.4, %union.anon.6, %union.anon.8, i32, [3 x ptr], ptr, i32, ptr, i64, i32, i64, i32, i32, i32, i32, i32, i32, i8, i32, i32, i32, i32, i32, i32, ptr }
%union.anon = type { %struct.anon }
%struct.anon = type { i32, i32 }
%union.anon.0 = type { %struct.anon.1 }
%struct.anon.1 = type { i32, i32 }
%union.anon.2 = type { %struct.anon.3 }
%struct.anon.3 = type { i32, i32 }
%union.anon.4 = type { %struct.anon.5 }
%struct.anon.5 = type { i32, i32 }
%union.anon.6 = type { %struct.anon.7 }
%struct.anon.7 = type { i32, i32 }
%union.anon.8 = type { %struct.anon.9 }
%struct.anon.9 = type { ptr, ptr, ptr }

@tx_size_wide = internal constant [19 x i32] [i32 4, i32 8, i32 16, i32 32, i32 64, i32 4, i32 8, i32 8, i32 16, i32 16, i32 32, i32 32, i32 64, i32 4, i32 16, i32 8, i32 32, i32 16, i32 64], align 16
@tx_size_high = internal constant [19 x i32] [i32 4, i32 8, i32 16, i32 32, i32 64, i32 8, i32 4, i32 16, i32 8, i32 32, i32 16, i32 64, i32 32, i32 16, i32 4, i32 32, i32 8, i32 64, i32 16], align 16

; Function Attrs: nounwind uwtable
define internal void @cfl_load_dc_pred_lbd(ptr noundef %0, ptr noundef %1, i32 noundef %2, i32 noundef %3, i32 noundef %4) #0 {
  %6 = alloca ptr, align 8
  %7 = alloca ptr, align 8
  %8 = alloca i32, align 4
  %9 = alloca i32, align 4
  %10 = alloca i32, align 4
  %11 = alloca i32, align 4
  store ptr %0, ptr %6, align 8
  store ptr %1, ptr %7, align 8
  store i32 %2, ptr %8, align 4
  store i32 %3, ptr %9, align 4
  store i32 %4, ptr %10, align 4
  store i32 0, ptr %11, align 4
  br label %12

12:                                               ; preds = %25, %5
  %13 = load i32, ptr %11, align 4
  %14 = load i32, ptr %10, align 4
  %15 = icmp slt i32 %13, %14
  br i1 %15, label %16, label %28

16:                                               ; preds = %12
  %17 = load ptr, ptr %7, align 8
  %18 = load ptr, ptr %6, align 8
  %19 = load i32, ptr %9, align 4
  %20 = sext i32 %19 to i64
  call void @llvm.memcpy.p0.p0.i64(ptr align 1 %17, ptr align 2 %18, i64 %20, i1 false)
  %21 = load i32, ptr %8, align 4
  %22 = load ptr, ptr %7, align 8
  %23 = sext i32 %21 to i64
  %24 = getelementptr inbounds i8, ptr %22, i64 %23
  store ptr %24, ptr %7, align 8
  br label %25

25:                                               ; preds = %16
  %26 = load i32, ptr %11, align 4
  %27 = add nsw i32 %26, 1
  store i32 %27, ptr %11, align 4
  br label %12, !llvm.loop !6

28:                                               ; preds = %12
  ret void
}

; Function Attrs: nounwind uwtable
define internal void @cfl_load_dc_pred_hbd(ptr noundef %0, ptr noundef %1, i32 noundef %2, i32 noundef %3, i32 noundef %4) #0 {
  %6 = alloca ptr, align 8
  %7 = alloca ptr, align 8
  %8 = alloca i32, align 4
  %9 = alloca i32, align 4
  %10 = alloca i32, align 4
  %11 = alloca i64, align 8
  %12 = alloca i32, align 4
  store ptr %0, ptr %6, align 8
  store ptr %1, ptr %7, align 8
  store i32 %2, ptr %8, align 4
  store i32 %3, ptr %9, align 4
  store i32 %4, ptr %10, align 4
  %13 = load i32, ptr %9, align 4
  %14 = shl i32 %13, 1
  %15 = sext i32 %14 to i64
  store i64 %15, ptr %11, align 8
  store i32 0, ptr %12, align 4
  br label %16

16:                                               ; preds = %28, %5
  %17 = load i32, ptr %12, align 4
  %18 = load i32, ptr %10, align 4
  %19 = icmp slt i32 %17, %18
  br i1 %19, label %20, label %31

20:                                               ; preds = %16
  %21 = load ptr, ptr %7, align 8
  %22 = load ptr, ptr %6, align 8
  %23 = load i64, ptr %11, align 8
  call void @llvm.memcpy.p0.p0.i64(ptr align 2 %21, ptr align 2 %22, i64 %23, i1 false)
  %24 = load i32, ptr %8, align 4
  %25 = load ptr, ptr %7, align 8
  %26 = sext i32 %24 to i64
  %27 = getelementptr inbounds i16, ptr %25, i64 %26
  store ptr %27, ptr %7, align 8
  br label %28

28:                                               ; preds = %20
  %29 = load i32, ptr %12, align 4
  %30 = add nsw i32 %29, 1
  store i32 %30, ptr %12, align 4
  br label %16, !llvm.loop !4

31:                                               ; preds = %16
  ret void
}

; Function Attrs: nounwind uwtable
define internal i32 @is_cur_buf_hbd(ptr noundef %0) #0 {
  %2 = alloca ptr, align 8
  store ptr %0, ptr %2, align 8
  %3 = load ptr, ptr %2, align 8
  %4 = getelementptr inbounds nuw %struct.macroblockd, ptr %3, i32 0, i32 22
  %5 = load ptr, ptr %4, align 8
  %6 = getelementptr inbounds nuw %struct.yv12_buffer_config, ptr %5, i32 0, i32 26
  %7 = load i32, ptr %6, align 8
  %8 = and i32 %7, 8
  %9 = icmp ne i32 %8, 0
  %10 = select i1 %9, i32 1, i32 0
  ret i32 %10
}

; Function Attrs: nounwind uwtable
define hidden void @cfl_load_dc_pred(ptr noundef %0, ptr noundef %1, i32 noundef %2, i8 noundef zeroext %3, i8 noundef zeroext %4) #0 {
  %6 = alloca ptr, align 8
  %7 = alloca ptr, align 8
  %8 = alloca i32, align 4
  %9 = alloca i8, align 1
  %10 = alloca i8, align 1
  %11 = alloca i32, align 4
  %12 = alloca i32, align 4
  %13 = alloca ptr, align 8
  store ptr %0, ptr %6, align 8
  store ptr %1, ptr %7, align 8
  store i32 %2, ptr %8, align 4
  store i8 %3, ptr %9, align 1
  store i8 %4, ptr %10, align 1
  %14 = load i8, ptr %9, align 1
  %15 = zext i8 %14 to i64
  %16 = getelementptr inbounds [19 x i32], ptr @tx_size_wide, i64 0, i64 %15
  %17 = load i32, ptr %16, align 4
  store i32 %17, ptr %11, align 4
  %18 = load i8, ptr %9, align 1
  %19 = zext i8 %18 to i64
  %20 = getelementptr inbounds [19 x i32], ptr @tx_size_high, i64 0, i64 %19
  %21 = load i32, ptr %20, align 4
  store i32 %21, ptr %12, align 4
  %22 = load ptr, ptr %6, align 8
  %23 = call i32 @is_cur_buf_hbd(ptr noundef %22)
  %24 = icmp ne i32 %23, 0
  br i1 %24, label %25, label %41

25:                                               ; preds = %5
  %26 = load ptr, ptr %7, align 8
  %27 = ptrtoint ptr %26 to i64
  %28 = shl i64 %27, 1
  %29 = inttoptr i64 %28 to ptr
  store ptr %29, ptr %13, align 8
  %30 = load ptr, ptr %6, align 8
  %31 = getelementptr inbounds nuw %struct.macroblockd, ptr %30, i32 0, i32 52
  %32 = getelementptr inbounds nuw %struct.cfl_ctx, ptr %31, i32 0, i32 4
  %33 = load i8, ptr %10, align 1
  %34 = zext i8 %33 to i64
  %35 = getelementptr inbounds [2 x [32 x i16]], ptr %32, i64 0, i64 %34
  %36 = getelementptr inbounds [32 x i16], ptr %35, i64 0, i64 0
  %37 = load ptr, ptr %13, align 8
  %38 = load i32, ptr %8, align 4
  %39 = load i32, ptr %11, align 4
  %40 = load i32, ptr %12, align 4
  call void @cfl_load_dc_pred_hbd(ptr noundef %36, ptr noundef %37, i32 noundef %38, i32 noundef %39, i32 noundef %40)
  br label %53

41:                                               ; preds = %5
  %42 = load ptr, ptr %6, align 8
  %43 = getelementptr inbounds nuw %struct.macroblockd, ptr %42, i32 0, i32 52
  %44 = getelementptr inbounds nuw %struct.cfl_ctx, ptr %43, i32 0, i32 4
  %45 = load i8, ptr %10, align 1
  %46 = zext i8 %45 to i64
  %47 = getelementptr inbounds [2 x [32 x i16]], ptr %44, i64 0, i64 %46
  %48 = getelementptr inbounds [32 x i16], ptr %47, i64 0, i64 0
  %49 = load ptr, ptr %7, align 8
  %50 = load i32, ptr %8, align 4
  %51 = load i32, ptr %11, align 4
  %52 = load i32, ptr %12, align 4
  call void @cfl_load_dc_pred_lbd(ptr noundef %48, ptr noundef %49, i32 noundef %50, i32 noundef %51, i32 noundef %52)
  br label %53

53:                                               ; preds = %41, %25
  ret void
}