; Function Attrs: nofree norecurse nosync nounwind memory(readwrite, inaccessiblemem: none) uwtable
define hidden void @cfl_load_dc_pred(ptr nocapture noundef readonly %0, ptr noundef %1, i32 noundef %2, i8 noundef zeroext %3, i8 noundef zeroext %4) local_unnamed_addr #4 {
  %6 = zext i8 %3 to i64
  %7 = getelementptr inbounds [19 x i32], ptr @tx_size_wide, i64 0, i64 %6
  %8 = load i32, ptr %7, align 4
  %9 = getelementptr inbounds [19 x i32], ptr @tx_size_high, i64 0, i64 %6
  %10 = load i32, ptr %9, align 4
  %11 = getelementptr i8, ptr %0, i64 7960
  %.val = load ptr, ptr %11, align 8
  %12 = getelementptr i8, ptr %.val, i64 192
  %.val.val = load i32, ptr %12, align 8
  %13 = and i32 %.val.val, 8
  %.not = icmp eq i32 %13, 0
  %14 = getelementptr inbounds i8, ptr %0, i64 47644
  %15 = zext i8 %4 to i64
  %16 = getelementptr inbounds [2 x [32 x i16]], ptr %14, i64 0, i64 %15
  br i1 %.not, label %.lr.ph.i15, label %.lr.ph.i

.lr.ph.i:                                         ; preds = %5
  %17 = shl i32 %8, 1
  %18 = sext i32 %17 to i64
  %19 = ptrtoint ptr %1 to i64
  %20 = shl i64 %19, 1
  %21 = inttoptr i64 %20 to ptr
  %22 = sext i32 %2 to i64
  br label %23

23:                                               ; preds = %23, %.lr.ph.i
  %.010.i = phi i32 [ 0, %.lr.ph.i ], [ %25, %23 ]
  %.089.i = phi ptr [ %21, %.lr.ph.i ], [ %24, %23 ]
  tail call void @llvm.memcpy.p0.p0.i64(ptr align 2 %.089.i, ptr nonnull readonly align 2 %16, i64 %18, i1 false)
  %24 = getelementptr inbounds i16, ptr %.089.i, i64 %22
  %25 = add nuw nsw i32 %.010.i, 1
  %exitcond.not.i = icmp eq i32 %25, %10
  br i1 %exitcond.not.i, label %cfl_load_dc_pred_hbd.exit, label %23, !llvm.loop !4

.lr.ph.i15:                                       ; preds = %5
  %26 = sext i32 %8 to i64
  %27 = sext i32 %2 to i64
  br label %28

28:                                               ; preds = %28, %.lr.ph.i15
  %.09.i = phi i32 [ 0, %.lr.ph.i15 ], [ %30, %28 ]
  %.078.i = phi ptr [ %1, %.lr.ph.i15 ], [ %29, %28 ]
  tail call void @llvm.memcpy.p0.p0.i64(ptr align 1 %.078.i, ptr nonnull readonly align 2 %16, i64 %26, i1 false)
  %29 = getelementptr inbounds i8, ptr %.078.i, i64 %27
  %30 = add nuw nsw i32 %.09.i, 1
  %exitcond.not.i16 = icmp eq i32 %30, %10
  br i1 %exitcond.not.i16, label %cfl_load_dc_pred_hbd.exit, label %28, !llvm.loop !6

cfl_load_dc_pred_hbd.exit:                        ; preds = %23, %28
  ret void
}